target datalayout = "e-m:e-p270:32:32-p271:32:32-p272:64:64-i64:64-i128:128-f80:128-n8:16:32:64-S128"
target triple = "x86_64-pc-linux-gnu"

; Function Attrs: nounwind uwtable
define hidden i32 @mbedtls_asn1_write_named_bitstring(ptr noundef %0, ptr noundef %1, ptr noundef %2, i64 noundef %3) #0 {
  %5 = alloca ptr, align 8
  %6 = alloca ptr, align 8
  %7 = alloca ptr, align 8
  %8 = alloca i64, align 8
  %9 = alloca i64, align 8
  %10 = alloca i64, align 8
  %11 = alloca ptr, align 8
  %12 = alloca i8, align 1
  %13 = alloca i8, align 1
  store ptr %0, ptr %5, align 8, !tbaa !3
  store ptr %1, ptr %6, align 8, !tbaa !9
  store ptr %2, ptr %7, align 8, !tbaa !9
  store i64 %3, ptr %8, align 8, !tbaa !11
  call void @llvm.lifetime.start.p0(i64 8, ptr %9) #6
  call void @llvm.lifetime.start.p0(i64 8, ptr %10) #6
  call void @llvm.lifetime.start.p0(i64 8, ptr %11) #6
  call void @llvm.lifetime.start.p0(i64 1, ptr %12) #6
  call void @llvm.lifetime.start.p0(i64 1, ptr %13) #6
  %14 = load i64, ptr %8, align 8, !tbaa !11
  %15 = add i64 %14, 7
  %16 = udiv i64 %15, 8
  store i64 %16, ptr %10, align 8, !tbaa !11
  %17 = load i64, ptr %10, align 8, !tbaa !11
  %18 = mul i64 %17, 8
  %19 = load i64, ptr %8, align 8, !tbaa !11
  %20 = sub i64 %18, %19
  store i64 %20, ptr %9, align 8, !tbaa !11
  %21 = load i64, ptr %8, align 8, !tbaa !11
  %22 = icmp ne i64 %21, 0
  br i1 %22, label %23, label %64

23:                                               ; preds = %4
  %24 = load ptr, ptr %7, align 8, !tbaa !9
  %25 = load i64, ptr %10, align 8, !tbaa !11
  %26 = getelementptr inbounds nuw i8, ptr %24, i64 %25
  %27 = getelementptr inbounds i8, ptr %26, i64 -1
  store ptr %27, ptr %11, align 8, !tbaa !9
  %28 = load ptr, ptr %11, align 8, !tbaa !9
  %29 = load i8, ptr %28, align 1, !tbaa !17
  %30 = zext i8 %29 to i32
  %31 = load i64, ptr %9, align 8, !tbaa !11
  %32 = trunc i64 %31 to i32
  %33 = ashr i32 %30, %32
  %34 = trunc i32 %33 to i8
  store i8 %34, ptr %12, align 1, !tbaa !17
  br label %35

35:                                               ; preds = %62, %23
  %36 = load i8, ptr %12, align 1, !tbaa !17
  %37 = zext i8 %36 to i32
  %38 = and i32 %37, 1
  %39 = trunc i32 %38 to i8
  store i8 %39, ptr %13, align 1, !tbaa !17
  %40 = load i8, ptr %12, align 1, !tbaa !17
  %41 = zext i8 %40 to i32
  %42 = ashr i32 %41, 1
  %43 = trunc i32 %42 to i8
  store i8 %43, ptr %12, align 1, !tbaa !17
  %44 = load i8, ptr %13, align 1, !tbaa !17
  %45 = zext i8 %44 to i32
  %46 = icmp ne i32 %45, 0
  br i1 %46, label %47, label %48

47:                                               ; preds = %35
  br label %63

48:                                               ; preds = %35
  %49 = load i64, ptr %8, align 8, !tbaa !11
  %50 = add i64 %49, -1
  store i64 %50, ptr %8, align 8, !tbaa !11
  %51 = load i64, ptr %8, align 8, !tbaa !11
  %52 = icmp eq i64 %51, 0
  br i1 %52, label %53, label %54

53:                                               ; preds = %48
  br label %63

54:                                               ; preds = %48
  %55 = load i64, ptr %8, align 8, !tbaa !11
  %56 = urem i64 %55, 8
  %57 = icmp eq i64 %56, 0
  br i1 %57, label %58, label %62

58:                                               ; preds = %54
  %59 = load ptr, ptr %11, align 8, !tbaa !9
  %60 = getelementptr inbounds i8, ptr %59, i32 -1
  store ptr %60, ptr %11, align 8, !tbaa !9
  %61 = load i8, ptr %60, align 1, !tbaa !17
  store i8 %61, ptr %12, align 1, !tbaa !17
  br label %62

62:                                               ; preds = %58, %54
  br label %35

63:                                               ; preds = %53, %47
  br label %64

64:                                               ; preds = %63, %4
  %65 = load ptr, ptr %5, align 8, !tbaa !3
  %66 = load ptr, ptr %6, align 8, !tbaa !9
  %67 = load ptr, ptr %7, align 8, !tbaa !9
  %68 = load i64, ptr %8, align 8, !tbaa !11
  %69 = call i32 @mbedtls_asn1_write_bitstring(ptr noundef %65, ptr noundef %66, ptr noundef %67, i64 noundef %68)
  call void @llvm.lifetime.end.p0(i64 1, ptr %13) #6
  call void @llvm.lifetime.end.p0(i64 1, ptr %12) #6
  call void @llvm.lifetime.end.p0(i64 8, ptr %11) #6
  call void @llvm.lifetime.end.p0(i64 8, ptr %10) #6
  call void @llvm.lifetime.end.p0(i64 8, ptr %9) #6
  ret i32 %69
}