; Function Attrs: nofree norecurse nosync nounwind memory(readwrite, inaccessiblemem: none) uwtable
define hidden i32 @mbedtls_asn1_write_named_bitstring(ptr noundef captures(none) %0, ptr noundef %1, ptr noundef readonly captures(none) %2, i64 noundef %3) local_unnamed_addr #6 {
  %.not = icmp eq i64 %3, 0
  br i1 %.not, label %.loopexit, label %5

5:                                                ; preds = %4
  %6 = add i64 %3, 7
  %7 = and i64 %6, 4294967288
  %8 = sub i64 %7, %3
  %9 = lshr i64 %6, 3
  %10 = getelementptr inbounds nuw i8, ptr %2, i64 %9
  %11 = getelementptr inbounds i8, ptr %10, i64 -1
  %12 = load i8, ptr %11, align 1, !tbaa !10
  %13 = zext i8 %12 to i32
  %14 = trunc i64 %8 to i32
  %15 = lshr i32 %13, %14
  %16 = trunc nuw i32 %15 to i8
  %17 = and i8 %16, 1
  %.not2627 = icmp eq i8 %17, 0
  br i1 %.not2627, label %.lr.ph, label %.loopexit

.lr.ph:                                           ; preds = %5, %27
  %.in = phi i8 [ %.119, %27 ], [ %16, %5 ]
  %.129 = phi i64 [ %18, %27 ], [ %3, %5 ]
  %.02028 = phi ptr [ %.121, %27 ], [ %11, %5 ]
  %18 = add i64 %.129, -1
  %19 = icmp eq i64 %18, 0
  br i1 %19, label %.loopexit, label %20

20:                                               ; preds = %.lr.ph
  %21 = lshr i8 %.in, 1
  %22 = and i64 %18, 7
  %23 = icmp eq i64 %22, 0
  br i1 %23, label %24, label %27

24:                                               ; preds = %20
  %25 = getelementptr inbounds i8, ptr %.02028, i64 -1
  %26 = load i8, ptr %25, align 1, !tbaa !10
  br label %27

27:                                               ; preds = %24, %20
  %.121 = phi ptr [ %25, %24 ], [ %.02028, %20 ]
  %.119 = phi i8 [ %26, %24 ], [ %21, %20 ]
  %28 = and i8 %.119, 1
  %.not26 = icmp eq i8 %28, 0
  br i1 %.not26, label %.lr.ph, label %.loopexit

.loopexit:                                        ; preds = %.lr.ph, %27, %5, %4
  %.0 = phi i64 [ 0, %4 ], [ %3, %5 ], [ 0, %.lr.ph ], [ %18, %27 ]
  %29 = tail call i32 @mbedtls_asn1_write_bitstring(ptr noundef %0, ptr noundef %1, ptr noundef %2, i64 noundef %.0)
  ret i32 %29
}